target datalayout = "e-m:e-p270:32:32-p271:32:32-p272:64:64-i64:64-i128:128-f80:128-n8:16:32:64-S128"
target triple = "x86_64-pc-linux-gnu"

%struct.quicklist = type { ptr, ptr, i64, i64, i64, [0 x %struct.quicklistBookmark] }
%struct.quicklistBookmark = type { ptr, ptr }

; Function Attrs: nounwind uwtable
define dso_local ptr @_quicklistBookmarkFindByNode(ptr noundef %0, ptr noundef %1) #0 {
  %3 = alloca ptr, align 8
  %4 = alloca ptr, align 8
  %5 = alloca ptr, align 8
  %6 = alloca i32, align 4
  %7 = alloca i32, align 4
  store ptr %0, ptr %4, align 8, !tbaa !9
  store ptr %1, ptr %5, align 8, !tbaa !12
  call void @llvm.lifetime.start.p0(i64 4, ptr %6) #10
  store i32 0, ptr %6, align 4, !tbaa !14
  br label %8

8:                                                ; preds = %34, %2
  %9 = load i32, ptr %6, align 4, !tbaa !14
  %10 = load ptr, ptr %4, align 8, !tbaa !9
  %11 = getelementptr inbounds nuw %struct.quicklist, ptr %10, i32 0, i32 4
  %12 = load i64, ptr %11, align 8
  %13 = lshr i64 %12, 32
  %14 = and i64 %13, 15
  %15 = trunc i64 %14 to i32
  %16 = icmp ult i32 %9, %15
  br i1 %16, label %17, label %37

17:                                               ; preds = %8
  %18 = load ptr, ptr %4, align 8, !tbaa !9
  %19 = getelementptr inbounds nuw %struct.quicklist, ptr %18, i32 0, i32 5
  %20 = load i32, ptr %6, align 4, !tbaa !14
  %21 = zext i32 %20 to i64
  %22 = getelementptr inbounds nuw [0 x %struct.quicklistBookmark], ptr %19, i64 0, i64 %21
  %23 = getelementptr inbounds nuw %struct.quicklistBookmark, ptr %22, i32 0, i32 0
  %24 = load ptr, ptr %23, align 8, !tbaa !38
  %25 = load ptr, ptr %5, align 8, !tbaa !12
  %26 = icmp eq ptr %24, %25
  br i1 %26, label %27, label %33

27:                                               ; preds = %17
  %28 = load ptr, ptr %4, align 8, !tbaa !9
  %29 = getelementptr inbounds nuw %struct.quicklist, ptr %28, i32 0, i32 5
  %30 = load i32, ptr %6, align 4, !tbaa !14
  %31 = zext i32 %30 to i64
  %32 = getelementptr inbounds nuw [0 x %struct.quicklistBookmark], ptr %29, i64 0, i64 %31
  store ptr %32, ptr %3, align 8
  store i32 1, ptr %7, align 4
  br label %38

33:                                               ; preds = %17
  br label %34

34:                                               ; preds = %33
  %35 = load i32, ptr %6, align 4, !tbaa !14
  %36 = add i32 %35, 1
  store i32 %36, ptr %6, align 4, !tbaa !14
  br label %8, !llvm.loop !39

37:                                               ; preds = %8
  store ptr null, ptr %3, align 8
  store i32 1, ptr %7, align 4
  br label %38

38:                                               ; preds = %37, %27
  call void @llvm.lifetime.end.p0(i64 4, ptr %6) #10
  %39 = load ptr, ptr %3, align 8
  ret ptr %39
}