; Function Attrs: nofree norecurse nosync nounwind memory(argmem: read) uwtable
define dso_local noundef ptr @_quicklistBookmarkFindByNode(ptr noundef readonly captures(ret: address, provenance) %0, ptr noundef readnone captures(address) %1) local_unnamed_addr #13 {
  %3 = getelementptr inbounds nuw i8, ptr %0, i64 40
  %4 = getelementptr inbounds nuw i8, ptr %0, i64 32
  %5 = load i64, ptr %4, align 8
  %6 = and i64 %5, 64424509440
  %.not = icmp eq i64 %6, 0
  br i1 %.not, label %._crit_edge, label %.lr.ph.preheader

.lr.ph.preheader:                                 ; preds = %2
  %7 = lshr i64 %5, 32
  %wide.trip.count = and i64 %7, 15
  br label %.lr.ph

8:                                                ; preds = %.lr.ph
  %indvars.iv.next = add nuw nsw i64 %indvars.iv, 1
  %exitcond.not = icmp eq i64 %indvars.iv.next, %wide.trip.count
  br i1 %exitcond.not, label %._crit_edge, label %.lr.ph, !llvm.loop !30

.lr.ph:                                           ; preds = %.lr.ph.preheader, %8
  %indvars.iv = phi i64 [ 0, %.lr.ph.preheader ], [ %indvars.iv.next, %8 ]
  %9 = getelementptr inbounds nuw [0 x %struct.quicklistBookmark], ptr %3, i64 0, i64 %indvars.iv
  %10 = load ptr, ptr %9, align 8, !tbaa !31
  %11 = icmp eq ptr %10, %1
  br i1 %11, label %._crit_edge, label %8

._crit_edge:                                      ; preds = %.lr.ph, %8, %2
  %.08 = phi ptr [ null, %2 ], [ null, %8 ], [ %9, %.lr.ph ]
  ret ptr %.08
}